target datalayout = "e-m:e-p270:32:32-p271:32:32-p272:64:64-i64:64-i128:128-f80:128-n8:16:32:64-S128"
target triple = "x86_64-pc-linux-gnu"

%struct._packet_info = type { ptr, ptr, i32, i32, %struct.nstime_t, %struct.nstime_t, %struct.nstime_t, i8, ptr, ptr, ptr, ptr, %struct._address, %struct._address, %struct._address, %struct._address, %struct._address, %struct._address, i32, ptr, i8, [3 x i8], %struct.anon.1, i32, i32, i32, i32, ptr, i8, ptr, ptr, i16, i16, i32, i32, i16, i32, i32, ptr, ptr, ptr, i8, i8, i16, i16, i16, i32, i16, i16, ptr, ptr, ptr, ptr, ptr, i32, i32 }
%struct.nstime_t = type { i64, i32 }
%struct._address = type { i32, i32, ptr, ptr }
%struct.anon.1 = type { i8, [3 x i8] }
%struct._frame_data = type <{ i32, i32, i32, i32, i32, [4 x i8], i64, ptr, ptr, ptr, i8, i16, [5 x i8], %struct.nstime_t, %struct.nstime_t, i32, i32 }>

@hf_amqp_method_basic_get_ok_delivery_tag = internal global i32 0, align 4
@hf_amqp_method_basic_get_ok_redelivered = internal global i32 0, align 4
@hf_amqp_method_basic_get_ok_exchange = internal global i32 0, align 4
@hf_amqp_method_basic_get_ok_routing_key = internal global i32 0, align 4
@hf_amqp_method_basic_get_ok_message_count = internal global i32 0, align 4
@.str.1475 = private unnamed_addr constant [6 x i8] c"x=%s \00", align 1
@.str.1480 = private unnamed_addr constant [7 x i8] c"rk=%s \00", align 1

; Function Attrs: null_pointer_is_valid sspstrong uwtable
define internal i32 @dissect_amqp_0_9_method_basic_get_ok(i16 noundef zeroext %0, ptr noundef %1, ptr noundef %2, i32 noundef %3, ptr noundef %4) #0 {
  %6 = alloca i16, align 2
  %7 = alloca ptr, align 8
  %8 = alloca ptr, align 8
  %9 = alloca i32, align 4
  %10 = alloca ptr, align 8
  %11 = alloca i64, align 8
  %12 = alloca ptr, align 8
  store i16 %0, ptr %6, align 2
  store ptr %1, ptr %7, align 8
  store ptr %2, ptr %8, align 8
  store i32 %3, ptr %9, align 4
  store ptr %4, ptr %10, align 8
  call void @llvm.lifetime.start.p0(i64 8, ptr %11) #11
  call void @llvm.lifetime.start.p0(i64 8, ptr %12) #11
  %13 = load ptr, ptr %10, align 8
  %14 = load i32, ptr @hf_amqp_method_basic_get_ok_delivery_tag, align 4
  %15 = load ptr, ptr %7, align 8
  %16 = load i32, ptr %9, align 4
  %17 = call ptr @proto_tree_add_item(ptr noundef %13, i32 noundef %14, ptr noundef %15, i32 noundef %16, i32 noundef 8, i32 noundef 0)
  %18 = load ptr, ptr %7, align 8
  %19 = load i32, ptr %9, align 4
  %20 = call i64 @tvb_get_ntoh64(ptr noundef %18, i32 noundef %19)
  store i64 %20, ptr %11, align 8
  %21 = load i32, ptr %9, align 4
  %22 = add i32 %21, 8
  store i32 %22, ptr %9, align 4
  %23 = load ptr, ptr %10, align 8
  %24 = load i32, ptr @hf_amqp_method_basic_get_ok_redelivered, align 4
  %25 = load ptr, ptr %7, align 8
  %26 = load i32, ptr %9, align 4
  %27 = call ptr @proto_tree_add_item(ptr noundef %23, i32 noundef %24, ptr noundef %25, i32 noundef %26, i32 noundef 1, i32 noundef 0)
  %28 = load i32, ptr %9, align 4
  %29 = add i32 %28, 1
  store i32 %29, ptr %9, align 4
  %30 = load ptr, ptr %10, align 8
  %31 = load i32, ptr @hf_amqp_method_basic_get_ok_exchange, align 4
  %32 = load ptr, ptr %7, align 8
  %33 = load i32, ptr %9, align 4
  %34 = add i32 %33, 1
  %35 = load ptr, ptr %7, align 8
  %36 = load i32, ptr %9, align 4
  %37 = call zeroext i8 @tvb_get_uint8(ptr noundef %35, i32 noundef %36)
  %38 = zext i8 %37 to i32
  %39 = load ptr, ptr %8, align 8
  %40 = getelementptr inbounds nuw %struct._packet_info, ptr %39, i32 0, i32 51
  %41 = load ptr, ptr %40, align 8
  %42 = call ptr @proto_tree_add_item_ret_string(ptr noundef %30, i32 noundef %31, ptr noundef %32, i32 noundef %34, i32 noundef %38, i32 noundef 0, ptr noundef %41, ptr noundef %12)
  %43 = load ptr, ptr %8, align 8
  %44 = getelementptr inbounds nuw %struct._packet_info, ptr %43, i32 0, i32 1
  %45 = load ptr, ptr %44, align 8
  %46 = load ptr, ptr %12, align 8
  call void (ptr, i32, ptr, ...) @col_append_fstr(ptr noundef %45, i32 noundef 25, ptr noundef @.str.1475, ptr noundef %46)
  %47 = load ptr, ptr %7, align 8
  %48 = load i32, ptr %9, align 4
  %49 = call zeroext i8 @tvb_get_uint8(ptr noundef %47, i32 noundef %48)
  %50 = zext i8 %49 to i32
  %51 = add i32 1, %50
  %52 = load i32, ptr %9, align 4
  %53 = add i32 %52, %51
  store i32 %53, ptr %9, align 4
  %54 = load ptr, ptr %10, align 8
  %55 = load i32, ptr @hf_amqp_method_basic_get_ok_routing_key, align 4
  %56 = load ptr, ptr %7, align 8
  %57 = load i32, ptr %9, align 4
  %58 = add i32 %57, 1
  %59 = load ptr, ptr %7, align 8
  %60 = load i32, ptr %9, align 4
  %61 = call zeroext i8 @tvb_get_uint8(ptr noundef %59, i32 noundef %60)
  %62 = zext i8 %61 to i32
  %63 = load ptr, ptr %8, align 8
  %64 = getelementptr inbounds nuw %struct._packet_info, ptr %63, i32 0, i32 51
  %65 = load ptr, ptr %64, align 8
  %66 = call ptr @proto_tree_add_item_ret_string(ptr noundef %54, i32 noundef %55, ptr noundef %56, i32 noundef %58, i32 noundef %62, i32 noundef 0, ptr noundef %65, ptr noundef %12)
  %67 = load ptr, ptr %8, align 8
  %68 = getelementptr inbounds nuw %struct._packet_info, ptr %67, i32 0, i32 1
  %69 = load ptr, ptr %68, align 8
  %70 = load ptr, ptr %12, align 8
  call void (ptr, i32, ptr, ...) @col_append_fstr(ptr noundef %69, i32 noundef 25, ptr noundef @.str.1480, ptr noundef %70)
  %71 = load ptr, ptr %7, align 8
  %72 = load i32, ptr %9, align 4
  %73 = call zeroext i8 @tvb_get_uint8(ptr noundef %71, i32 noundef %72)
  %74 = zext i8 %73 to i32
  %75 = add i32 1, %74
  %76 = load i32, ptr %9, align 4
  %77 = add i32 %76, %75
  store i32 %77, ptr %9, align 4
  %78 = load ptr, ptr %10, align 8
  %79 = load i32, ptr @hf_amqp_method_basic_get_ok_message_count, align 4
  %80 = load ptr, ptr %7, align 8
  %81 = load i32, ptr %9, align 4
  %82 = call ptr @proto_tree_add_item(ptr noundef %78, i32 noundef %79, ptr noundef %80, i32 noundef %81, i32 noundef 4, i32 noundef 0)
  %83 = load i32, ptr %9, align 4
  %84 = add i32 %83, 4
  store i32 %84, ptr %9, align 4
  %85 = load ptr, ptr %8, align 8
  %86 = getelementptr inbounds nuw %struct._packet_info, ptr %85, i32 0, i32 8
  %87 = load ptr, ptr %86, align 8
  %88 = getelementptr inbounds nuw %struct._frame_data, ptr %87, i32 0, i32 11
  %89 = load i16, ptr %88, align 1
  %90 = lshr i16 %89, 3
  %91 = and i16 %90, 1
  %92 = zext i16 %91 to i32
  %93 = icmp ne i32 %92, 0
  br i1 %93, label %99, label %94

94:                                               ; preds = %5
  %95 = load ptr, ptr %7, align 8
  %96 = load ptr, ptr %8, align 8
  %97 = load i16, ptr %6, align 2
  %98 = load i64, ptr %11, align 8
  call void @record_msg_delivery(ptr noundef %95, ptr noundef %96, i16 noundef zeroext %97, i64 noundef %98)
  br label %99

99:                                               ; preds = %94, %5
  %100 = load i32, ptr %9, align 4
  call void @llvm.lifetime.end.p0(i64 8, ptr %12) #11
  call void @llvm.lifetime.end.p0(i64 8, ptr %11) #11
  ret i32 %100
}