; Function Attrs: null_pointer_is_valid sspstrong uwtable
define internal fastcc void @dissect_amqp_0_9_method_basic_get_ok(i16 noundef zeroext %0, ptr noundef %1, ptr noundef %2, ptr noundef %3) unnamed_addr #0 {
  %5 = alloca ptr, align 8
  call void @llvm.lifetime.start.p0(i64 8, ptr nonnull %5) #14
  %6 = load i32, ptr @hf_amqp_method_basic_get_ok_delivery_tag, align 4
  %7 = tail call ptr @proto_tree_add_item(ptr noundef %3, i32 noundef %6, ptr noundef %1, i32 noundef 11, i32 noundef 8, i32 noundef 0)
  %8 = tail call i64 @tvb_get_ntoh64(ptr noundef %1, i32 noundef 11)
  %9 = load i32, ptr @hf_amqp_method_basic_get_ok_redelivered, align 4
  %10 = tail call ptr @proto_tree_add_item(ptr noundef %3, i32 noundef %9, ptr noundef %1, i32 noundef 19, i32 noundef 1, i32 noundef 0)
  %11 = load i32, ptr @hf_amqp_method_basic_get_ok_exchange, align 4
  %12 = tail call zeroext i8 @tvb_get_uint8(ptr noundef %1, i32 noundef 20)
  %13 = zext i8 %12 to i32
  %14 = getelementptr inbounds nuw i8, ptr %2, i64 408
  %15 = load ptr, ptr %14, align 8
  %16 = call ptr @proto_tree_add_item_ret_string(ptr noundef %3, i32 noundef %11, ptr noundef %1, i32 noundef 21, i32 noundef %13, i32 noundef 0, ptr noundef %15, ptr noundef nonnull %5)
  %17 = getelementptr inbounds nuw i8, ptr %2, i64 8
  %18 = load ptr, ptr %17, align 8
  %19 = load ptr, ptr %5, align 8
  call void (ptr, i32, ptr, ...) @col_append_fstr(ptr noundef %18, i32 noundef 25, ptr noundef nonnull @.str.1475, ptr noundef %19)
  %20 = call zeroext i8 @tvb_get_uint8(ptr noundef %1, i32 noundef 20)
  %21 = zext i8 %20 to i32
  %22 = add nuw nsw i32 %21, 21
  %23 = load i32, ptr @hf_amqp_method_basic_get_ok_routing_key, align 4
  %24 = add nuw nsw i32 %21, 22
  %25 = call zeroext i8 @tvb_get_uint8(ptr noundef %1, i32 noundef %22)
  %26 = zext i8 %25 to i32
  %27 = load ptr, ptr %14, align 8
  %28 = call ptr @proto_tree_add_item_ret_string(ptr noundef %3, i32 noundef %23, ptr noundef %1, i32 noundef %24, i32 noundef %26, i32 noundef 0, ptr noundef %27, ptr noundef nonnull %5)
  %29 = load ptr, ptr %17, align 8
  %30 = load ptr, ptr %5, align 8
  call void (ptr, i32, ptr, ...) @col_append_fstr(ptr noundef %29, i32 noundef 25, ptr noundef nonnull @.str.1480, ptr noundef %30)
  %31 = call zeroext i8 @tvb_get_uint8(ptr noundef %1, i32 noundef %22)
  %32 = zext i8 %31 to i32
  %33 = add nuw nsw i32 %24, %32
  %34 = load i32, ptr @hf_amqp_method_basic_get_ok_message_count, align 4
  %35 = call ptr @proto_tree_add_item(ptr noundef %3, i32 noundef %34, ptr noundef %1, i32 noundef %33, i32 noundef 4, i32 noundef 0)
  %36 = getelementptr inbounds nuw i8, ptr %2, i64 80
  %37 = load ptr, ptr %36, align 8
  %38 = getelementptr inbounds nuw i8, ptr %37, i64 57
  %39 = load i16, ptr %38, align 1
  %40 = and i16 %39, 8
  %.not = icmp eq i16 %40, 0
  br i1 %.not, label %41, label %42

41:                                               ; preds = %4
  call fastcc void @record_msg_delivery(ptr noundef %1, ptr noundef %2, i16 noundef zeroext %0, i64 noundef %8)
  br label %42

42:                                               ; preds = %41, %4
  call void @llvm.lifetime.end.p0(i64 8, ptr nonnull %5) #14
  ret void
}